target datalayout = "e-m:e-p270:32:32-p271:32:32-p272:64:64-i64:64-i128:128-f80:128-n8:16:32:64-S128"
target triple = "x86_64-pc-linux-gnu"

%struct.HWDevice = type { ptr, i32, ptr }

@nb_hw_devices = internal global i32 0, align 4
@hw_devices = internal global ptr null, align 8

; Function Attrs: nounwind uwtable
define ptr @hw_device_get_by_name(ptr noundef %0) #0 {
  %2 = alloca ptr, align 8
  %3 = alloca ptr, align 8
  %4 = alloca i32, align 4
  %5 = alloca i32, align 4
  store ptr %0, ptr %3, align 8, !tbaa !20
  call void @llvm.lifetime.start.p0(i64 4, ptr %4) #5
  store i32 0, ptr %4, align 4, !tbaa !4
  br label %6

6:                                                ; preds = %28, %1
  %7 = load i32, ptr %4, align 4, !tbaa !4
  %8 = load i32, ptr @nb_hw_devices, align 4, !tbaa !4
  %9 = icmp slt i32 %7, %8
  br i1 %9, label %10, label %31

10:                                               ; preds = %6
  %11 = load ptr, ptr @hw_devices, align 8, !tbaa !11
  %12 = load i32, ptr %4, align 4, !tbaa !4
  %13 = sext i32 %12 to i64
  %14 = getelementptr inbounds ptr, ptr %11, i64 %13
  %15 = load ptr, ptr %14, align 8, !tbaa !8
  %16 = getelementptr inbounds nuw %struct.HWDevice, ptr %15, i32 0, i32 0
  %17 = load ptr, ptr %16, align 8, !tbaa !21
  %18 = load ptr, ptr %3, align 8, !tbaa !20
  %19 = call i32 @strcmp(ptr noundef %17, ptr noundef %18) #6
  %20 = icmp ne i32 %19, 0
  br i1 %20, label %27, label %21

21:                                               ; preds = %10
  %22 = load ptr, ptr @hw_devices, align 8, !tbaa !11
  %23 = load i32, ptr %4, align 4, !tbaa !4
  %24 = sext i32 %23 to i64
  %25 = getelementptr inbounds ptr, ptr %22, i64 %24
  %26 = load ptr, ptr %25, align 8, !tbaa !8
  store ptr %26, ptr %2, align 8
  store i32 1, ptr %5, align 4
  br label %32

27:                                               ; preds = %10
  br label %28

28:                                               ; preds = %27
  %29 = load i32, ptr %4, align 4, !tbaa !4
  %30 = add nsw i32 %29, 1
  store i32 %30, ptr %4, align 4, !tbaa !4
  br label %6, !llvm.loop !22

31:                                               ; preds = %6
  store ptr null, ptr %2, align 8
  store i32 1, ptr %5, align 4
  br label %32

32:                                               ; preds = %31, %21
  call void @llvm.lifetime.end.p0(i64 4, ptr %4) #5
  %33 = load ptr, ptr %2, align 8
  ret ptr %33
}