; Function Attrs: nofree norecurse nounwind memory(read, inaccessiblemem: none) uwtable
define noundef ptr @hw_device_get_by_name(ptr noundef readonly captures(none) %0) local_unnamed_addr #2 {
  %2 = load i32, ptr @nb_hw_devices, align 4, !tbaa !4
  %3 = icmp sgt i32 %2, 0
  br i1 %3, label %.lr.ph, label %._crit_edge

.lr.ph:                                           ; preds = %1
  %4 = load ptr, ptr @hw_devices, align 8, !tbaa !8
  %wide.trip.count = zext nneg i32 %2 to i64
  br label %6

5:                                                ; preds = %6
  %indvars.iv.next = add nuw nsw i64 %indvars.iv, 1
  %exitcond.not = icmp eq i64 %indvars.iv.next, %wide.trip.count
  br i1 %exitcond.not, label %._crit_edge, label %6, !llvm.loop !20

6:                                                ; preds = %.lr.ph, %5
  %indvars.iv = phi i64 [ 0, %.lr.ph ], [ %indvars.iv.next, %5 ]
  %7 = getelementptr inbounds nuw ptr, ptr %4, i64 %indvars.iv
  %8 = load ptr, ptr %7, align 8, !tbaa !12
  %9 = load ptr, ptr %8, align 8, !tbaa !21
  %10 = tail call i32 @strcmp(ptr noundef nonnull dereferenceable(1) %9, ptr noundef nonnull dereferenceable(1) %0) #7
  %.not = icmp eq i32 %10, 0
  br i1 %.not, label %._crit_edge, label %5

._crit_edge:                                      ; preds = %6, %5, %1
  %.05 = phi ptr [ null, %1 ], [ null, %5 ], [ %8, %6 ]
  ret ptr %.05
}